target datalayout = "e-m:e-p270:32:32-p271:32:32-p272:64:64-i64:64-i128:128-f80:128-n8:16:32:64-S128"
target triple = "x86_64-pc-linux-gnu"

%struct.ident_t = type { i32, i32, i32, i32, ptr }
%"class.ncnn::Mat" = type { ptr, ptr, i64, i32, ptr, i32, i32, i32, i32, i32, i64 }
%"class.ncnn::Option" = type { i8, i32, ptr, ptr, i32, i8, i8, i8, i8, i8, i8, i8, i8, i8, i8, i8, i8, i8, i8, i8, i8, i8, i8, i8, i8, i32, i8, i8, i8, i8, i8, i8, i8, i8, i8, i8, i8, i8 }

@2 = private unnamed_addr constant %struct.ident_t { i32 0, i32 2, i32 0, i32 22, ptr @0 }, align 8

; Function Attrs: alwaysinline mustprogress nounwind uwtable
define linkonce_odr hidden noundef i64 @_ZNK4ncnn3Mat5totalEv(ptr noundef nonnull align 8 dereferenceable(72) %0) #7 comdat align 2 {
  %2 = alloca ptr, align 8
  store ptr %0, ptr %2, align 8, !tbaa !13
  %3 = load ptr, ptr %2, align 8
  %4 = getelementptr inbounds nuw %"class.ncnn::Mat", ptr %3, i32 0, i32 10
  %5 = load i64, ptr %4, align 8, !tbaa !70
  %6 = getelementptr inbounds nuw %"class.ncnn::Mat", ptr %3, i32 0, i32 9
  %7 = load i32, ptr %6, align 8, !tbaa !26
  %8 = sext i32 %7 to i64
  %9 = mul i64 %5, %8
  ret i64 %9
}

; Function Attrs: inlinehint mustprogress nounwind uwtable
define linkonce_odr noundef nonnull align 4 dereferenceable(4) ptr @_ZSt3maxIiERKT_S2_S2_(ptr noundef nonnull align 4 dereferenceable(4) %0, ptr noundef nonnull align 4 dereferenceable(4) %1) #0 comdat {
  %3 = alloca ptr, align 8
  %4 = alloca ptr, align 8
  %5 = alloca ptr, align 8
  store ptr %0, ptr %4, align 8, !tbaa !47
  store ptr %1, ptr %5, align 8, !tbaa !47
  %6 = load ptr, ptr %4, align 8, !tbaa !47
  %7 = load i32, ptr %6, align 4, !tbaa !23
  %8 = load ptr, ptr %5, align 8, !tbaa !47
  %9 = load i32, ptr %8, align 4, !tbaa !23
  %10 = icmp slt i32 %7, %9
  br i1 %10, label %11, label %13

11:                                               ; preds = %2
  %12 = load ptr, ptr %5, align 8, !tbaa !47
  store ptr %12, ptr %3, align 8
  br label %15

13:                                               ; preds = %2
  %14 = load ptr, ptr %4, align 8, !tbaa !47
  store ptr %14, ptr %3, align 8
  br label %15

15:                                               ; preds = %13, %11
  %16 = load ptr, ptr %3, align 8
  ret ptr %16
}

; Function Attrs: alwaysinline mustprogress uwtable
define linkonce_odr hidden noundef zeroext i1 @_ZNK4ncnn3Mat5emptyEv(ptr noundef nonnull align 8 dereferenceable(72) %0) #4 comdat align 2 {
  %2 = alloca ptr, align 8
  store ptr %0, ptr %2, align 8, !tbaa !13
  %3 = load ptr, ptr %2, align 8
  %4 = getelementptr inbounds nuw %"class.ncnn::Mat", ptr %3, i32 0, i32 0
  %5 = load ptr, ptr %4, align 8, !tbaa !46
  %6 = icmp eq ptr %5, null
  br i1 %6, label %10, label %7

7:                                                ; preds = %1
  %8 = call noundef i64 @_ZNK4ncnn3Mat5totalEv(ptr noundef nonnull align 8 dereferenceable(72) %3)
  %9 = icmp eq i64 %8, 0
  br label %10

10:                                               ; preds = %7, %1
  %11 = phi i1 [ true, %1 ], [ %9, %7 ]
  ret i1 %11
}

; Function Attrs: mustprogress uwtable
define hidden noundef i32 @_ZNK4ncnn14Requantize_x867forwardERKNS_3MatERS1_RKNS_6OptionE(ptr noundef nonnull align 8 dereferenceable(512) %0, ptr noundef nonnull align 8 dereferenceable(72) %1, ptr noundef nonnull align 8 dereferenceable(72) %2, ptr noundef nonnull align 8 dereferenceable(64) %3) unnamed_addr #2 align 2 {
  %5 = alloca i32, align 4
  %6 = alloca ptr, align 8
  %7 = alloca ptr, align 8
  %8 = alloca ptr, align 8
  %9 = alloca ptr, align 8
  %10 = alloca i32, align 4
  %11 = alloca i32, align 4
  %12 = alloca i32, align 4
  %13 = alloca i32, align 4
  %14 = alloca i32, align 4
  %15 = alloca i64, align 8
  %16 = alloca i32, align 4
  %17 = alloca i32, align 4
  %18 = alloca i32, align 4
  %19 = alloca i32, align 4
  %20 = alloca i32, align 4
  %21 = call i32 @__kmpc_global_thread_num(ptr @2)
  store ptr %0, ptr %6, align 8, !tbaa !11
  store ptr %1, ptr %7, align 8, !tbaa !13
  store ptr %2, ptr %8, align 8, !tbaa !13
  store ptr %3, ptr %9, align 8, !tbaa !15
  %22 = load ptr, ptr %6, align 8
  call void @llvm.lifetime.start.p0(i64 4, ptr %10) #6
  %23 = load ptr, ptr %7, align 8, !tbaa !13
  %24 = getelementptr inbounds nuw %"class.ncnn::Mat", ptr %23, i32 0, i32 5
  %25 = load i32, ptr %24, align 8, !tbaa !17
  store i32 %25, ptr %10, align 4, !tbaa !23
  call void @llvm.lifetime.start.p0(i64 4, ptr %11) #6
  %26 = load ptr, ptr %7, align 8, !tbaa !13
  %27 = getelementptr inbounds nuw %"class.ncnn::Mat", ptr %26, i32 0, i32 6
  %28 = load i32, ptr %27, align 4, !tbaa !24
  store i32 %28, ptr %11, align 4, !tbaa !23
  call void @llvm.lifetime.start.p0(i64 4, ptr %12) #6
  %29 = load ptr, ptr %7, align 8, !tbaa !13
  %30 = getelementptr inbounds nuw %"class.ncnn::Mat", ptr %29, i32 0, i32 7
  %31 = load i32, ptr %30, align 8, !tbaa !25
  store i32 %31, ptr %12, align 4, !tbaa !23
  call void @llvm.lifetime.start.p0(i64 4, ptr %13) #6
  %32 = load ptr, ptr %7, align 8, !tbaa !13
  %33 = getelementptr inbounds nuw %"class.ncnn::Mat", ptr %32, i32 0, i32 9
  %34 = load i32, ptr %33, align 8, !tbaa !26
  store i32 %34, ptr %13, align 4, !tbaa !23
  call void @llvm.lifetime.start.p0(i64 4, ptr %14) #6
  %35 = load ptr, ptr %7, align 8, !tbaa !13
  %36 = getelementptr inbounds nuw %"class.ncnn::Mat", ptr %35, i32 0, i32 3
  %37 = load i32, ptr %36, align 8, !tbaa !27
  store i32 %37, ptr %14, align 4, !tbaa !23
  call void @llvm.lifetime.start.p0(i64 8, ptr %15) #6
  %38 = load i32, ptr %14, align 4, !tbaa !23
  %39 = mul i32 %38, 1
  %40 = zext i32 %39 to i64
  store i64 %40, ptr %15, align 8, !tbaa !28
  %41 = load i32, ptr %10, align 4, !tbaa !23
  %42 = icmp eq i32 %41, 1
  br i1 %42, label %43, label %73

43:                                               ; preds = %4
  %44 = load ptr, ptr %8, align 8, !tbaa !13
  %45 = load i32, ptr %11, align 4, !tbaa !23
  %46 = load i64, ptr %15, align 8, !tbaa !28
  %47 = load i32, ptr %14, align 4, !tbaa !23
  %48 = load ptr, ptr %9, align 8, !tbaa !15
  %49 = getelementptr inbounds nuw %"class.ncnn::Option", ptr %48, i32 0, i32 2
  %50 = load ptr, ptr %49, align 8, !tbaa !29
  call void @_ZN4ncnn3Mat6createEimiPNS_9AllocatorE(ptr noundef nonnull align 8 dereferenceable(72) %44, i32 noundef %45, i64 noundef %46, i32 noundef %47, ptr noundef %50)
  %51 = load ptr, ptr %8, align 8, !tbaa !13
  %52 = call noundef zeroext i1 @_ZNK4ncnn3Mat5emptyEv(ptr noundef nonnull align 8 dereferenceable(72) %51)
  br i1 %52, label %53, label %54

53:                                               ; preds = %43
  store i32 -100, ptr %5, align 4
  store i32 1, ptr %16, align 4
  br label %117

54:                                               ; preds = %43
  call void @llvm.lifetime.start.p0(i64 4, ptr %17) #6
  call void @llvm.lifetime.start.p0(i64 4, ptr %18) #6
  store i32 1, ptr %18, align 4, !tbaa !23
  call void @llvm.lifetime.start.p0(i64 4, ptr %19) #6
  %55 = load i32, ptr %11, align 4, !tbaa !23
  %56 = load ptr, ptr %9, align 8, !tbaa !15
  %57 = getelementptr inbounds nuw %"class.ncnn::Option", ptr %56, i32 0, i32 1
  %58 = load i32, ptr %57, align 4, !tbaa !32
  %59 = sdiv i32 %55, %58
  store i32 %59, ptr %19, align 4, !tbaa !23
  %60 = call noundef nonnull align 4 dereferenceable(4) ptr @_ZSt3maxIiERKT_S2_S2_(ptr noundef nonnull align 4 dereferenceable(4) %18, ptr noundef nonnull align 4 dereferenceable(4) %19)
  %61 = load i32, ptr %60, align 4, !tbaa !23
  call void @llvm.lifetime.end.p0(i64 4, ptr %19) #6
  call void @llvm.lifetime.end.p0(i64 4, ptr %18) #6
  store i32 %61, ptr %17, align 4, !tbaa !23
  call void @llvm.lifetime.start.p0(i64 4, ptr %20) #6
  %62 = load i32, ptr %11, align 4, !tbaa !23
  %63 = load i32, ptr %17, align 4, !tbaa !23
  %64 = add nsw i32 %62, %63
  %65 = sub nsw i32 %64, 1
  %66 = load i32, ptr %17, align 4, !tbaa !23
  %67 = sdiv i32 %65, %66
  store i32 %67, ptr %20, align 4, !tbaa !23
  %68 = load ptr, ptr %9, align 8, !tbaa !15
  %69 = getelementptr inbounds nuw %"class.ncnn::Option", ptr %68, i32 0, i32 1
  %70 = load i32, ptr %69, align 4, !tbaa !32
  call void @__kmpc_push_num_threads(ptr @2, i32 %21, i32 %70)
  %71 = load ptr, ptr %7, align 8, !tbaa !13
  %72 = load ptr, ptr %8, align 8, !tbaa !13
  call void (ptr, i32, ptr, ...) @__kmpc_fork_call(ptr @2, i32 7, ptr @_ZNK4ncnn14Requantize_x867forwardERKNS_3MatERS1_RKNS_6OptionE.omp_outlined, ptr %20, ptr %17, ptr %71, ptr %14, ptr %72, ptr %11, ptr %22)
  call void @llvm.lifetime.end.p0(i64 4, ptr %20) #6
  call void @llvm.lifetime.end.p0(i64 4, ptr %17) #6
  br label %73

73:                                               ; preds = %54, %4
  %74 = load i32, ptr %10, align 4, !tbaa !23
  %75 = icmp eq i32 %74, 2
  br i1 %75, label %76, label %94

76:                                               ; preds = %73
  %77 = load ptr, ptr %8, align 8, !tbaa !13
  %78 = load i32, ptr %11, align 4, !tbaa !23
  %79 = load i32, ptr %12, align 4, !tbaa !23
  %80 = load i64, ptr %15, align 8, !tbaa !28
  %81 = load i32, ptr %14, align 4, !tbaa !23
  %82 = load ptr, ptr %9, align 8, !tbaa !15
  %83 = getelementptr inbounds nuw %"class.ncnn::Option", ptr %82, i32 0, i32 2
  %84 = load ptr, ptr %83, align 8, !tbaa !29
  call void @_ZN4ncnn3Mat6createEiimiPNS_9AllocatorE(ptr noundef nonnull align 8 dereferenceable(72) %77, i32 noundef %78, i32 noundef %79, i64 noundef %80, i32 noundef %81, ptr noundef %84)
  %85 = load ptr, ptr %8, align 8, !tbaa !13
  %86 = call noundef zeroext i1 @_ZNK4ncnn3Mat5emptyEv(ptr noundef nonnull align 8 dereferenceable(72) %85)
  br i1 %86, label %87, label %88

87:                                               ; preds = %76
  store i32 -100, ptr %5, align 4
  store i32 1, ptr %16, align 4
  br label %117

88:                                               ; preds = %76
  %89 = load ptr, ptr %9, align 8, !tbaa !15
  %90 = getelementptr inbounds nuw %"class.ncnn::Option", ptr %89, i32 0, i32 1
  %91 = load i32, ptr %90, align 4, !tbaa !32
  call void @__kmpc_push_num_threads(ptr @2, i32 %21, i32 %91)
  %92 = load ptr, ptr %7, align 8, !tbaa !13
  %93 = load ptr, ptr %8, align 8, !tbaa !13
  call void (ptr, i32, ptr, ...) @__kmpc_fork_call(ptr @2, i32 6, ptr @_ZNK4ncnn14Requantize_x867forwardERKNS_3MatERS1_RKNS_6OptionE.omp_outlined.1, ptr %12, ptr %92, ptr %93, ptr %22, ptr %14, ptr %11)
  br label %94

94:                                               ; preds = %88, %73
  %95 = load i32, ptr %10, align 4, !tbaa !23
  %96 = icmp eq i32 %95, 3
  br i1 %96, label %97, label %116

97:                                               ; preds = %94
  %98 = load ptr, ptr %8, align 8, !tbaa !13
  %99 = load i32, ptr %11, align 4, !tbaa !23
  %100 = load i32, ptr %12, align 4, !tbaa !23
  %101 = load i32, ptr %13, align 4, !tbaa !23
  %102 = load i64, ptr %15, align 8, !tbaa !28
  %103 = load i32, ptr %14, align 4, !tbaa !23
  %104 = load ptr, ptr %9, align 8, !tbaa !15
  %105 = getelementptr inbounds nuw %"class.ncnn::Option", ptr %104, i32 0, i32 2
  %106 = load ptr, ptr %105, align 8, !tbaa !29
  call void @_ZN4ncnn3Mat6createEiiimiPNS_9AllocatorE(ptr noundef nonnull align 8 dereferenceable(72) %98, i32 noundef %99, i32 noundef %100, i32 noundef %101, i64 noundef %102, i32 noundef %103, ptr noundef %106)
  %107 = load ptr, ptr %8, align 8, !tbaa !13
  %108 = call noundef zeroext i1 @_ZNK4ncnn3Mat5emptyEv(ptr noundef nonnull align 8 dereferenceable(72) %107)
  br i1 %108, label %109, label %110

109:                                              ; preds = %97
  store i32 -100, ptr %5, align 4
  store i32 1, ptr %16, align 4
  br label %117

110:                                              ; preds = %97
  %111 = load ptr, ptr %9, align 8, !tbaa !15
  %112 = getelementptr inbounds nuw %"class.ncnn::Option", ptr %111, i32 0, i32 1
  %113 = load i32, ptr %112, align 4, !tbaa !32
  call void @__kmpc_push_num_threads(ptr @2, i32 %21, i32 %113)
  %114 = load ptr, ptr %7, align 8, !tbaa !13
  %115 = load ptr, ptr %8, align 8, !tbaa !13
  call void (ptr, i32, ptr, ...) @__kmpc_fork_call(ptr @2, i32 7, ptr @_ZNK4ncnn14Requantize_x867forwardERKNS_3MatERS1_RKNS_6OptionE.omp_outlined.2, ptr %13, ptr %114, ptr %115, ptr %22, ptr %14, ptr %11, ptr %12)
  br label %116

116:                                              ; preds = %110, %94
  store i32 0, ptr %5, align 4
  store i32 1, ptr %16, align 4
  br label %117

117:                                              ; preds = %116, %109, %87, %53
  call void @llvm.lifetime.end.p0(i64 8, ptr %15) #6
  call void @llvm.lifetime.end.p0(i64 4, ptr %14) #6
  call void @llvm.lifetime.end.p0(i64 4, ptr %13) #6
  call void @llvm.lifetime.end.p0(i64 4, ptr %12) #6
  call void @llvm.lifetime.end.p0(i64 4, ptr %11) #6
  call void @llvm.lifetime.end.p0(i64 4, ptr %10) #6
  %118 = load i32, ptr %5, align 4
  ret i32 %118
}